; Function Attrs: mustprogress uwtable
define dso_local void @_ZN20cmFindPackageCommand22RestoreFindDefinitionsEv(ptr noundef nonnull readonly align 8 dereferenceable(1104) %0) local_unnamed_addr #3 align 2 {
  %2 = getelementptr inbounds i8, ptr %0, i64 408
  %3 = load ptr, ptr %2, align 8
  %4 = getelementptr inbounds i8, ptr %0, i64 392
  %.not1112 = icmp eq ptr %3, %4
  br i1 %.not1112, label %._crit_edge, label %.lr.ph

.lr.ph:                                           ; preds = %1
  %5 = getelementptr inbounds i8, ptr %0, i64 368
  br label %6

6:                                                ; preds = %.lr.ph, %18
  %.sroa.08.013 = phi ptr [ %3, %.lr.ph ], [ %19, %18 ]
  %7 = getelementptr inbounds i8, ptr %.sroa.08.013, i64 32
  %8 = getelementptr inbounds i8, ptr %.sroa.08.013, i64 64
  %9 = load i8, ptr %8, align 8
  %10 = and i8 %9, 1
  %.not = icmp eq i8 %10, 0
  %11 = load ptr, ptr %5, align 8
  br i1 %.not, label %17, label %12

12:                                               ; preds = %6
  %13 = getelementptr inbounds i8, ptr %.sroa.08.013, i64 72
  %14 = tail call { i64, ptr } @_ZNKSt7__cxx1112basic_stringIcSt11char_traitsIcESaIcEEcvSt17basic_string_viewIcS2_EEv(ptr noundef nonnull align 8 dereferenceable(32) %13) #23
  %15 = extractvalue { i64, ptr } %14, 0
  %16 = extractvalue { i64, ptr } %14, 1
  tail call void @_ZN10cmMakefile13AddDefinitionERKNSt7__cxx1112basic_stringIcSt11char_traitsIcESaIcEEESt17basic_string_viewIcS3_E(ptr noundef nonnull align 8 dereferenceable(3520) %11, ptr noundef nonnull align 8 dereferenceable(32) %7, i64 %15, ptr %16)
  br label %18

17:                                               ; preds = %6
  tail call void @_ZN10cmMakefile16RemoveDefinitionERKNSt7__cxx1112basic_stringIcSt11char_traitsIcESaIcEEE(ptr noundef nonnull align 8 dereferenceable(3520) %11, ptr noundef nonnull align 8 dereferenceable(32) %7)
  br label %18

18:                                               ; preds = %12, %17
  %19 = tail call noundef ptr @_ZSt18_Rb_tree_incrementPSt18_Rb_tree_node_base(ptr noundef nonnull %.sroa.08.013) #27
  %.not11 = icmp eq ptr %19, %4
  br i1 %.not11, label %._crit_edge, label %6

._crit_edge:                                      ; preds = %18, %1
  ret void
}